; Function Attrs: mustprogress uwtable
define hidden void @_ZN20bit_blaster_rewriterC2ER11ast_managerRK10params_ref(ptr nocapture noundef nonnull writeonly align 8 dereferenceable(8) %this, ptr noundef nonnull align 8 dereferenceable(976) %m, ptr noundef nonnull align 8 dereferenceable(8) %p) unnamed_addr #3 align 2 personality ptr @__gxx_personality_v0 {
entry:
  %call = tail call noalias noundef ptr @_ZN6memory8allocateEm(i64 noundef 856)
  store ptr getelementptr inbounds ({ [4 x ptr] }, ptr @_ZTVN20bit_blaster_rewriter3impE, i64 0, i32 0, i64 2), ptr %call, align 8
  %m_proof_mode.i.i = getelementptr inbounds i8, ptr %m, i64 712
  %0 = load i32, ptr %m_proof_mode.i.i, align 8
  %cmp.i.i = icmp ne i32 %0, 0
  %m_cfg.i = getelementptr inbounds i8, ptr %call, i64 656
  tail call void @_ZN12rewriter_tplI20blaster_rewriter_cfgEC2ER11ast_managerbRS0_(ptr noundef nonnull align 8 dereferenceable(536) %call, ptr noundef nonnull align 8 dereferenceable(976) %m, i1 noundef zeroext %cmp.i.i, ptr noundef nonnull align 8 dereferenceable(200) %m_cfg.i)
  store ptr getelementptr inbounds ({ [4 x ptr] }, ptr @_ZTVN20bit_blaster_rewriter3impE, i64 0, i32 0, i64 2), ptr %call, align 8
  %m_blaster.i = getelementptr inbounds i8, ptr %call, i64 536
  invoke void @_ZN7blasterC2ER11ast_manager(ptr noundef nonnull align 8 dereferenceable(120) %m_blaster.i, ptr noundef nonnull align 8 dereferenceable(976) %m)
          to label %invoke.cont.i unwind label %lpad.i

invoke.cont.i:                                    ; preds = %entry
  invoke void @_ZN20blaster_rewriter_cfgC2ER11ast_managerR7blasterRK10params_ref(ptr noundef nonnull align 8 dereferenceable(200) %m_cfg.i, ptr noundef nonnull align 8 dereferenceable(976) %m, ptr noundef nonnull align 8 dereferenceable(120) %m_blaster.i, ptr noundef nonnull align 8 dereferenceable(8) %p)
          to label %_ZN20bit_blaster_rewriter3impC2ER11ast_managerRK10params_ref.exit unwind label %lpad4.i

lpad.i:                                           ; preds = %entry
  %1 = landingpad { ptr, i32 }
          cleanup
  br label %ehcleanup.i

lpad4.i:                                          ; preds = %invoke.cont.i
  %2 = landingpad { ptr, i32 }
          cleanup
  %m_rewriter.i.i = getelementptr inbounds i8, ptr %call, i64 560
  tail call void @_ZN13bool_rewriterD2Ev(ptr noundef nonnull align 8 dereferenceable(72) %m_rewriter.i.i) #19
  br label %ehcleanup.i

ehcleanup.i:                                      ; preds = %lpad4.i, %lpad.i
  %.pn.i = phi { ptr, i32 } [ %2, %lpad4.i ], [ %1, %lpad.i ]
  tail call void @_ZN12rewriter_tplI20blaster_rewriter_cfgED2Ev(ptr noundef nonnull align 8 dereferenceable(536) %call) #19
  resume { ptr, i32 } %.pn.i

_ZN20bit_blaster_rewriter3impC2ER11ast_managerRK10params_ref.exit: ; preds = %invoke.cont.i
  store ptr %call, ptr %this, align 8
  ret void
}